(dp0
Vengine
p1
S'pdflatex'
p2
sVpackages
p3
c__builtin__
set
p4
((lp5
Vhyperref
p6
aVmhchem
p7
aVcolor
p8
aVfullpage
p9
aVlistings
p10
aVsyntax
p11
aVtimes
p12
atp13
Rp14
sVfiles_with_guttermarks
p15
g4
((lp16
V/Users/andy/src/cayman/doc/./design.tex
p17
aS'design.tex'
p18
aV/Users/andy/src/cayman/doc/design.tex
p19
atp20
Rp21
sVsynctex
p22
I01
s.